Certificate:
    Data:
        Version: 3 (0x2)
        Serial Number:
            1f:8b:53:41:a9:f6:bb:63:16:4c:44:fd:04:a0:4e:70
        Signature Algorithm: sha256WithRSAEncryption
        Issuer: CN=Easy-RSA CA
        Validity
            Not Before: May 13 18:13:23 2025 GMT
            Not After : Aug 16 18:13:23 2027 GMT
        Subject: CN=client
        Subject Public Key Info:
            Public Key Algorithm: rsaEncryption
                Public-Key: (2048 bit)
                Modulus:
                    00:a9:b4:c0:cd:b0:0e:d5:3a:38:5f:53:ff:e8:be:
                    ea:bd:30:b0:47:57:50:c7:17:ef:59:d7:62:07:8d:
                    49:37:62:5f:a2:44:c0:3e:f0:ea:99:33:5b:23:fd:
                    9e:31:92:91:55:da:0b:f0:44:82:ff:56:5a:61:63:
                    c9:2a:c3:69:a4:f9:95:07:bb:a7:08:5e:19:19:1e:
                    71:5d:b5:b4:57:63:5c:a3:87:f2:b1:7a:e3:30:cf:
                    ec:e0:4a:96:1b:77:56:05:38:b2:b8:26:b5:ae:5d:
                    ea:e9:ad:11:66:92:fb:62:24:a3:85:40:5a:9e:6e:
                    3f:a1:c6:4d:31:35:01:ca:04:8b:f8:49:a6:09:5c:
                    16:e1:75:ba:16:f5:43:e1:13:52:0e:72:e6:fc:29:
                    61:04:e9:80:5d:10:ca:46:4d:5e:33:0b:95:aa:8c:
                    03:a7:74:93:4a:77:c9:79:aa:18:6d:96:48:5f:94:
                    cd:0e:86:db:4d:c8:6c:60:a3:93:40:33:f9:51:6e:
                    ae:cf:49:8f:37:1c:5d:73:9b:e6:ce:af:a9:c8:f8:
                    e1:7c:8e:6f:50:0d:ef:87:7e:96:c0:aa:c2:ad:4b:
                    39:64:04:8c:9a:50:78:0e:ab:4f:5a:98:ff:ad:d1:
                    9c:1a:58:07:cd:94:eb:3d:b1:04:f3:ca:a2:ee:b6:
                    c2:29
                Exponent: 65537 (0x10001)
        X509v3 extensions:
            X509v3 Basic Constraints: 
                CA:FALSE
            X509v3 Subject Key Identifier: 
                5D:36:EA:9C:E5:9E:FB:C2:BD:50:E3:7D:85:E2:11:20:70:C2:95:6B
            X509v3 Authority Key Identifier: 
                keyid:37:32:8E:50:FB:3C:8C:E6:F1:B8:FE:D9:5F:C0:28:09:2C:D9:CE:FD
                DirName:/CN=Easy-RSA CA
                serial:29:64:0A:2C:EA:32:B6:8E:2A:AC:BD:9E:40:FA:B2:C7:21:B4:49:4A
            X509v3 Extended Key Usage: 
                TLS Web Client Authentication
            X509v3 Key Usage: 
                Digital Signature
    Signature Algorithm: sha256WithRSAEncryption
    Signature Value:
        ad:0e:89:fa:6b:4d:e8:ab:46:4a:c9:db:2f:02:a9:62:08:30:
        90:76:20:23:bd:23:89:dc:6f:ac:6e:2f:d6:27:b7:76:ee:18:
        d1:c0:fa:b4:6b:7a:6a:6d:a5:16:2d:15:a9:d2:d9:87:6a:2d:
        08:97:c3:fb:79:1b:3a:27:2f:de:54:86:c1:6a:72:33:96:0e:
        a9:08:19:10:f2:cf:1d:99:7f:dc:9a:22:2c:cd:45:54:bd:de:
        8c:cf:b1:9d:8c:9b:88:2f:b7:1b:f9:12:3c:7e:15:f2:3e:e4:
        2d:06:62:2d:63:90:9e:c0:7a:d5:f4:1b:57:44:90:86:91:5b:
        54:f3:2b:58:94:e7:45:3a:ec:f0:3a:57:0b:2c:1f:02:33:be:
        5a:f5:5b:b9:a2:77:2a:bf:b7:23:b9:b7:ab:f6:6b:3c:f2:9f:
        b7:8e:a2:0d:c6:14:86:d4:b0:d2:f9:c5:4e:a9:65:45:8a:ad:
        92:81:93:fd:09:cb:b1:fa:be:ef:f3:f7:f5:c0:a3:e5:9e:cd:
        c8:86:03:69:d5:50:99:79:b7:74:18:a6:78:57:33:cb:6e:71:
        f6:61:04:83:50:70:0c:65:94:62:dc:d5:ab:76:be:e6:96:88:
        66:9a:1b:0a:24:6c:b8:c9:1f:30:55:7c:92:8f:dd:60:b3:b7:
        56:f2:29:f1
-----BEGIN CERTIFICATE-----
MIIDVDCCAjygAwIBAgIQH4tTQan2u2MWTET9BKBOcDANBgkqhkiG9w0BAQsFADAW
MRQwEgYDVQQDDAtFYXN5LVJTQSBDQTAeFw0yNTA1MTMxODEzMjNaFw0yNzA4MTYx
ODEzMjNaMBExDzANBgNVBAMMBmNsaWVudDCCASIwDQYJKoZIhvcNAQEBBQADggEP
ADCCAQoCggEBAKm0wM2wDtU6OF9T/+i+6r0wsEdXUMcX71nXYgeNSTdiX6JEwD7w
6pkzWyP9njGSkVXaC/BEgv9WWmFjySrDaaT5lQe7pwheGRkecV21tFdjXKOH8rF6
4zDP7OBKlht3VgU4srgmta5d6umtEWaS+2Iko4VAWp5uP6HGTTE1AcoEi/hJpglc
FuF1uhb1Q+ETUg5y5vwpYQTpgF0QykZNXjMLlaqMA6d0k0p3yXmqGG2WSF+UzQ6G
203IbGCjk0Az+VFurs9JjzccXXOb5s6vqcj44XyOb1AN74d+lsCqwq1LOWQEjJpQ
eA6rT1qY/63RnBpYB82U6z2xBPPKou62wikCAwEAAaOBojCBnzAJBgNVHRMEAjAA
MB0GA1UdDgQWBBRdNuqc5Z77wr1Q432F4hEgcMKVazBRBgNVHSMESjBIgBQ3Mo5Q
+zyM5vG4/tlfwCgJLNnO/aEapBgwFjEUMBIGA1UEAwwLRWFzeS1SU0EgQ0GCFClk
CizqMraOKqy9nkD6sschtElKMBMGA1UdJQQMMAoGCCsGAQUFBwMCMAsGA1UdDwQE
AwIHgDANBgkqhkiG9w0BAQsFAAOCAQEArQ6J+mtN6KtGSsnbLwKpYggwkHYgI70j
idxvrG4v1ie3du4Y0cD6tGt6am2lFi0VqdLZh2otCJfD+3kbOicv3lSGwWpyM5YO
qQgZEPLPHZl/3JoiLM1FVL3ejM+xnYybiC+3G/kSPH4V8j7kLQZiLWOQnsB61fQb
V0SQhpFbVPMrWJTnRTrs8DpXCywfAjO+WvVbuaJ3Kr+3I7m3q/ZrPPKft46iDcYU
htSw0vnFTqllRYqtkoGT/QnLsfq+7/P39cCj5Z7NyIYDadVQmXm3dBimeFczy25x
9mEEg1BwDGWUYtzVq3a+5paIZpobCiRsuMkfMFV8ko/dYLO3VvIp8Q==
-----END CERTIFICATE-----
